target datalayout = "e-m:e-p270:32:32-p271:32:32-p272:64:64-i64:64-i128:128-f80:128-n8:16:32:64-S128"
target triple = "x86_64-unknown-linux-gnu"

; Function Attrs: mustprogress nounwind uwtable
define noundef i64 @_ZN5arrow8internal26SparseTensorConverterMixin13GetIndexValueEPKhi(ptr noundef %value_ptr, i32 noundef %elsize) #0 align 2 {
entry:
  %retval = alloca i64, align 8
  %value_ptr.addr = alloca ptr, align 8
  %elsize.addr = alloca i32, align 4
  store ptr %value_ptr, ptr %value_ptr.addr, align 8
  store i32 %elsize, ptr %elsize.addr, align 4
  %0 = load i32, ptr %elsize.addr, align 4
  switch i32 %0, label %sw.default [
    i32 1, label %sw.bb
    i32 2, label %sw.bb1
    i32 4, label %sw.bb3
    i32 8, label %sw.bb5
  ]

sw.bb:                                            ; preds = %entry
  %1 = load ptr, ptr %value_ptr.addr, align 8
  %2 = load i8, ptr %1, align 1
  %conv = zext i8 %2 to i64
  store i64 %conv, ptr %retval, align 8
  br label %return

sw.bb1:                                           ; preds = %entry
  %3 = load ptr, ptr %value_ptr.addr, align 8
  %4 = load i16, ptr %3, align 2
  %conv2 = zext i16 %4 to i64
  store i64 %conv2, ptr %retval, align 8
  br label %return

sw.bb3:                                           ; preds = %entry
  %5 = load ptr, ptr %value_ptr.addr, align 8
  %6 = load i32, ptr %5, align 4
  %conv4 = zext i32 %6 to i64
  store i64 %conv4, ptr %retval, align 8
  br label %return

sw.bb5:                                           ; preds = %entry
  %7 = load ptr, ptr %value_ptr.addr, align 8
  %8 = load i64, ptr %7, align 8
  store i64 %8, ptr %retval, align 8
  br label %return

sw.default:                                       ; preds = %entry
  store i64 0, ptr %retval, align 8
  br label %return

return:                                           ; preds = %sw.default, %sw.bb5, %sw.bb3, %sw.bb1, %sw.bb
  %9 = load i64, ptr %retval, align 8
  ret i64 %9
}