; Function Attrs: mustprogress nofree norecurse nosync nounwind willreturn memory(argmem: read) uwtable
define noundef i64 @_ZN5arrow8internal26SparseTensorConverterMixin13GetIndexValueEPKhi(ptr nocapture noundef readonly %value_ptr, i32 noundef %elsize) local_unnamed_addr #1 align 2 {
entry:
  switch i32 %elsize, label %return [
    i32 1, label %sw.bb
    i32 2, label %sw.bb1
    i32 4, label %sw.bb3
    i32 8, label %sw.bb5
  ]

sw.bb:                                            ; preds = %entry
  %0 = load i8, ptr %value_ptr, align 1
  %conv = zext i8 %0 to i64
  br label %return

sw.bb1:                                           ; preds = %entry
  %1 = load i16, ptr %value_ptr, align 2
  %conv2 = zext i16 %1 to i64
  br label %return

sw.bb3:                                           ; preds = %entry
  %2 = load i32, ptr %value_ptr, align 4
  %conv4 = zext i32 %2 to i64
  br label %return

sw.bb5:                                           ; preds = %entry
  %3 = load i64, ptr %value_ptr, align 8
  br label %return

return:                                           ; preds = %entry, %sw.bb5, %sw.bb3, %sw.bb1, %sw.bb
  %retval.0 = phi i64 [ %3, %sw.bb5 ], [ %conv4, %sw.bb3 ], [ %conv2, %sw.bb1 ], [ %conv, %sw.bb ], [ 0, %entry ]
  ret i64 %retval.0
}